; Function Attrs: nounwind uwtable
define internal i32 @filtering_ref_iterator_seek(ptr noundef readonly captures(none) %0, ptr noundef %1) #0 {
  %3 = getelementptr inbounds nuw i8, ptr %0, i64 24
  %4 = load ptr, ptr %3, align 8, !tbaa !4
  %5 = load ptr, ptr %4, align 8, !tbaa !10
  %6 = getelementptr inbounds nuw i8, ptr %0, i64 32
  %7 = load ptr, ptr %6, align 8, !tbaa !12
  %8 = tail call i32 %5(ptr noundef %7, ptr noundef %1) #10
  ret i32 %8
}